target datalayout = "e-m:e-p270:32:32-p271:32:32-p272:64:64-i64:64-i128:128-f80:128-n8:16:32:64-S128"
target triple = "x86_64-pc-linux-gnu"

%struct.Node = type { i32 }
%struct.VariableShowStmt = type { i32, ptr }
%struct.FetchStmt = type { i32, i32, i64, ptr, i8 }
%struct.QueryCompletion = type { i32, i64 }
%struct.PortalData = type { ptr, ptr, ptr, ptr, ptr, i32, i32, i32, ptr, i32, %struct.QueryCompletion, ptr, ptr, ptr, ptr, i32, i32, i32, i8, i8, ptr, ptr, ptr, ptr, ptr, ptr, ptr, i8, i8, i64, i64, i8 }
%struct.ExecuteStmt = type { i32, ptr, ptr }

; Function Attrs: nounwind uwtable
define dso_local ptr @UtilityTupleDescriptor(ptr noundef %0) #0 {
  %2 = alloca ptr, align 8
  %3 = alloca ptr, align 8
  %4 = alloca ptr, align 8
  %5 = alloca ptr, align 8
  %6 = alloca i32, align 4
  %7 = alloca ptr, align 8
  %8 = alloca ptr, align 8
  %9 = alloca ptr, align 8
  store ptr %0, ptr %3, align 8
  %10 = load ptr, ptr %3, align 8
  %11 = getelementptr inbounds nuw %struct.Node, ptr %10, i32 0, i32 0
  %12 = load i32, ptr %11, align 4
  switch i32 %12, label %59 [
    i32 212, label %13
    i32 202, label %16
    i32 252, label %37
    i32 240, label %50
    i32 158, label %53
  ]

13:                                               ; preds = %1
  %14 = load ptr, ptr %3, align 8
  %15 = call ptr @CallStmtResultDesc(ptr noundef %14)
  store ptr %15, ptr %2, align 8
  br label %60

16:                                               ; preds = %1
  call void @llvm.lifetime.start.p0(i64 8, ptr %4) #11
  %17 = load ptr, ptr %3, align 8
  store ptr %17, ptr %4, align 8
  call void @llvm.lifetime.start.p0(i64 8, ptr %5) #11
  %18 = load ptr, ptr %4, align 8
  %19 = getelementptr inbounds nuw %struct.FetchStmt, ptr %18, i32 0, i32 4
  %20 = load i8, ptr %19, align 8, !range !4, !noundef !5
  %21 = trunc i8 %20 to i1
  br i1 %21, label %22, label %23

22:                                               ; preds = %16
  store ptr null, ptr %2, align 8
  store i32 1, ptr %6, align 4
  br label %36

23:                                               ; preds = %16
  %24 = load ptr, ptr %4, align 8
  %25 = getelementptr inbounds nuw %struct.FetchStmt, ptr %24, i32 0, i32 3
  %26 = load ptr, ptr %25, align 8
  %27 = call ptr @GetPortalByName(ptr noundef %26)
  store ptr %27, ptr %5, align 8
  %28 = load ptr, ptr %5, align 8
  %29 = icmp ne ptr %28, null
  br i1 %29, label %31, label %30

30:                                               ; preds = %23
  store ptr null, ptr %2, align 8
  store i32 1, ptr %6, align 4
  br label %36

31:                                               ; preds = %23
  %32 = load ptr, ptr %5, align 8
  %33 = getelementptr inbounds nuw %struct.PortalData, ptr %32, i32 0, i32 21
  %34 = load ptr, ptr %33, align 8
  %35 = call ptr @CreateTupleDescCopy(ptr noundef %34)
  store ptr %35, ptr %2, align 8
  store i32 1, ptr %6, align 4
  br label %36

36:                                               ; preds = %31, %30, %22
  call void @llvm.lifetime.end.p0(i64 8, ptr %5) #11
  call void @llvm.lifetime.end.p0(i64 8, ptr %4) #11
  br label %60

37:                                               ; preds = %1
  call void @llvm.lifetime.start.p0(i64 8, ptr %7) #11
  %38 = load ptr, ptr %3, align 8
  store ptr %38, ptr %7, align 8
  call void @llvm.lifetime.start.p0(i64 8, ptr %8) #11
  %39 = load ptr, ptr %7, align 8
  %40 = getelementptr inbounds nuw %struct.ExecuteStmt, ptr %39, i32 0, i32 1
  %41 = load ptr, ptr %40, align 8
  %42 = call ptr @FetchPreparedStatement(ptr noundef %41, i1 noundef zeroext false)
  store ptr %42, ptr %8, align 8
  %43 = load ptr, ptr %8, align 8
  %44 = icmp ne ptr %43, null
  br i1 %44, label %46, label %45

45:                                               ; preds = %37
  store ptr null, ptr %2, align 8
  store i32 1, ptr %6, align 4
  br label %49

46:                                               ; preds = %37
  %47 = load ptr, ptr %8, align 8
  %48 = call ptr @FetchPreparedStatementResultDesc(ptr noundef %47)
  store ptr %48, ptr %2, align 8
  store i32 1, ptr %6, align 4
  br label %49

49:                                               ; preds = %46, %45
  call void @llvm.lifetime.end.p0(i64 8, ptr %8) #11
  call void @llvm.lifetime.end.p0(i64 8, ptr %7) #11
  br label %60

50:                                               ; preds = %1
  %51 = load ptr, ptr %3, align 8
  %52 = call ptr @ExplainResultDesc(ptr noundef %51)
  store ptr %52, ptr %2, align 8
  br label %60

53:                                               ; preds = %1
  call void @llvm.lifetime.start.p0(i64 8, ptr %9) #11
  %54 = load ptr, ptr %3, align 8
  store ptr %54, ptr %9, align 8
  %55 = load ptr, ptr %9, align 8
  %56 = getelementptr inbounds nuw %struct.VariableShowStmt, ptr %55, i32 0, i32 1
  %57 = load ptr, ptr %56, align 8
  %58 = call ptr @GetPGVariableResultDesc(ptr noundef %57)
  store ptr %58, ptr %2, align 8
  store i32 1, ptr %6, align 4
  call void @llvm.lifetime.end.p0(i64 8, ptr %9) #11
  br label %60

59:                                               ; preds = %1
  store ptr null, ptr %2, align 8
  br label %60

60:                                               ; preds = %59, %53, %50, %49, %36, %13
  %61 = load ptr, ptr %2, align 8
  ret ptr %61
}