; Function Attrs: nounwind uwtable
define dso_local ptr @UtilityTupleDescriptor(ptr noundef %0) local_unnamed_addr #0 {
  %2 = load i32, ptr %0, align 4
  switch i32 %2, label %29 [
    i32 212, label %3
    i32 202, label %5
    i32 252, label %17
    i32 240, label %23
    i32 158, label %25
  ]

3:                                                ; preds = %1
  %4 = tail call ptr @CallStmtResultDesc(ptr noundef nonnull %0) #11
  br label %29

5:                                                ; preds = %1
  %6 = getelementptr inbounds nuw i8, ptr %0, i64 24
  %7 = load i8, ptr %6, align 8, !range !4, !noundef !5
  %8 = trunc nuw i8 %7 to i1
  br i1 %8, label %29, label %9

9:                                                ; preds = %5
  %10 = getelementptr inbounds nuw i8, ptr %0, i64 16
  %11 = load ptr, ptr %10, align 8
  %12 = tail call ptr @GetPortalByName(ptr noundef %11) #11
  %.not17 = icmp eq ptr %12, null
  br i1 %.not17, label %29, label %13

13:                                               ; preds = %9
  %14 = getelementptr inbounds nuw i8, ptr %12, i64 144
  %15 = load ptr, ptr %14, align 8
  %16 = tail call ptr @CreateTupleDescCopy(ptr noundef %15) #11
  br label %29

17:                                               ; preds = %1
  %18 = getelementptr inbounds nuw i8, ptr %0, i64 8
  %19 = load ptr, ptr %18, align 8
  %20 = tail call ptr @FetchPreparedStatement(ptr noundef %19, i1 noundef zeroext false) #11
  %.not = icmp eq ptr %20, null
  br i1 %.not, label %29, label %21

21:                                               ; preds = %17
  %22 = tail call ptr @FetchPreparedStatementResultDesc(ptr noundef nonnull %20) #11
  br label %29

23:                                               ; preds = %1
  %24 = tail call ptr @ExplainResultDesc(ptr noundef nonnull %0) #11
  br label %29

25:                                               ; preds = %1
  %26 = getelementptr inbounds nuw i8, ptr %0, i64 8
  %27 = load ptr, ptr %26, align 8
  %28 = tail call ptr @GetPGVariableResultDesc(ptr noundef %27) #11
  br label %29

29:                                               ; preds = %1, %21, %17, %13, %5, %9, %25, %23, %3
  %.0 = phi ptr [ %28, %25 ], [ %24, %23 ], [ %4, %3 ], [ %16, %13 ], [ null, %5 ], [ null, %9 ], [ %22, %21 ], [ null, %17 ], [ null, %1 ]
  ret ptr %.0
}